; Function Attrs: mustprogress uwtable
define dso_local noundef nonnull align 8 dereferenceable(96) ptr @_ZN3net14QuicHeaderListaSERKS0_(ptr noundef nonnull returned align 8 dereferenceable(96) %this, ptr noundef nonnull align 8 dereferenceable(96) %other) local_unnamed_addr #0 align 2 {
entry:
  %header_list_ = getelementptr inbounds i8, ptr %this, i64 8
  %header_list_2 = getelementptr inbounds i8, ptr %other, i64 8
  %call3 = tail call noundef nonnull align 8 dereferenceable(80) ptr @_ZNSt5dequeISt4pairINSt7__cxx1112basic_stringIcSt11char_traitsIcESaIcEEES6_ESaIS7_EEaSERKS9_(ptr noundef nonnull align 8 dereferenceable(80) %header_list_, ptr noundef nonnull align 8 dereferenceable(80) %header_list_2)
  %uncompressed_header_bytes_ = getelementptr inbounds i8, ptr %other, i64 88
  %0 = load i64, ptr %uncompressed_header_bytes_, align 8
  %uncompressed_header_bytes_4 = getelementptr inbounds i8, ptr %this, i64 88
  store i64 %0, ptr %uncompressed_header_bytes_4, align 8
  ret ptr %this
}